target datalayout = "e-m:e-p270:32:32-p271:32:32-p272:64:64-i64:64-i128:128-f80:128-n8:16:32:64-S128"
target triple = "x86_64-pc-linux-gnu"

%struct.expert_field = type { i32, i32 }
%struct._packet_info = type { ptr, ptr, i32, i32, %struct.nstime_t, %struct.nstime_t, %struct.nstime_t, i8, ptr, ptr, ptr, ptr, %struct._address, %struct._address, %struct._address, %struct._address, %struct._address, %struct._address, i32, ptr, i8, [3 x i8], %struct.anon, i32, i32, i32, i32, ptr, i8, ptr, ptr, i16, i16, i32, i32, i16, i32, i32, ptr, ptr, ptr, i8, i8, i16, i16, i16, i32, i16, i16, ptr, ptr, ptr, ptr, ptr, i32, i32 }
%struct.nstime_t = type { i64, i32 }
%struct._address = type { i32, i32, ptr, ptr }
%struct.anon = type { i8, [3 x i8] }

@ei_gsm_a_gm_extraneous_data = internal global %struct.expert_field zeroinitializer, align 4
@ei_gsm_a_gm_missing_mandatory_element = internal global %struct.expert_field zeroinitializer, align 4
@.str.1095 = private unnamed_addr constant [62 x i8] c"Missing Mandatory element %s%s, rest of dissection is suspect\00", align 1
@.str.1137 = private unnamed_addr constant [23 x i8] c" - Offered PDP address\00", align 1

; Function Attrs: null_pointer_is_valid sspstrong uwtable
define internal void @dtap_sm_req_pdp_act(ptr noundef %0, ptr noundef %1, ptr noundef %2, i32 noundef %3, i32 noundef %4) #1 {
  %6 = alloca ptr, align 8
  %7 = alloca ptr, align 8
  %8 = alloca ptr, align 8
  %9 = alloca i32, align 4
  %10 = alloca i32, align 4
  %11 = alloca i32, align 4
  %12 = alloca i32, align 4
  %13 = alloca i32, align 4
  %14 = alloca i32, align 4
  store ptr %0, ptr %6, align 8
  store ptr %1, ptr %7, align 8
  store ptr %2, ptr %8, align 8
  store i32 %3, ptr %9, align 4
  store i32 %4, ptr %10, align 4
  call void @llvm.lifetime.start.p0(i64 4, ptr %11) #6
  call void @llvm.lifetime.start.p0(i64 4, ptr %12) #6
  call void @llvm.lifetime.start.p0(i64 4, ptr %13) #6
  %15 = load i32, ptr %9, align 4
  store i32 %15, ptr %11, align 4
  %16 = load i32, ptr %10, align 4
  store i32 %16, ptr %13, align 4
  %17 = load ptr, ptr %8, align 8
  %18 = getelementptr inbounds nuw %struct._packet_info, ptr %17, i32 0, i32 37
  store i32 -1, ptr %18, align 4
  %19 = load ptr, ptr %8, align 8
  %20 = getelementptr inbounds nuw %struct._packet_info, ptr %19, i32 0, i32 46
  store i32 1, ptr %20, align 8
  %21 = load i32, ptr %13, align 4
  %22 = icmp sgt i32 %21, 0
  br i1 %22, label %23, label %39

23:                                               ; preds = %5
  %24 = load ptr, ptr %6, align 8
  %25 = load ptr, ptr %7, align 8
  %26 = load ptr, ptr %8, align 8
  %27 = load i32, ptr %11, align 4
  %28 = load i32, ptr %13, align 4
  %29 = call zeroext i16 @elem_lv(ptr noundef %24, ptr noundef %25, ptr noundef %26, i32 noundef 5, i32 noundef 47, i32 noundef %27, i32 noundef %28, ptr noundef @.str.1137)
  %30 = zext i16 %29 to i32
  store i32 %30, ptr %12, align 4
  %31 = icmp ugt i32 %30, 0
  br i1 %31, label %32, label %39

32:                                               ; preds = %23
  %33 = load i32, ptr %12, align 4
  %34 = load i32, ptr %11, align 4
  %35 = add i32 %34, %33
  store i32 %35, ptr %11, align 4
  %36 = load i32, ptr %12, align 4
  %37 = load i32, ptr %13, align 4
  %38 = sub i32 %37, %36
  store i32 %38, ptr %13, align 4
  br label %46

39:                                               ; preds = %23, %5
  %40 = load ptr, ptr %7, align 8
  %41 = load ptr, ptr %8, align 8
  %42 = load ptr, ptr %6, align 8
  %43 = load i32, ptr %11, align 4
  %44 = call ptr @get_gsm_a_msg_string(i32 noundef 5, i32 noundef 47)
  %45 = call ptr (ptr, ptr, ptr, ptr, i32, i32, ptr, ...) @proto_tree_add_expert_format(ptr noundef %40, ptr noundef %41, ptr noundef @ei_gsm_a_gm_missing_mandatory_element, ptr noundef %42, i32 noundef %43, i32 noundef 0, ptr noundef @.str.1095, ptr noundef %44, ptr noundef @.str.1137)
  br label %46

46:                                               ; preds = %39, %32
  %47 = load i32, ptr %13, align 4
  %48 = icmp sle i32 %47, 0
  br i1 %48, label %49, label %50

49:                                               ; preds = %46
  store i32 1, ptr %14, align 4
  br label %142

50:                                               ; preds = %46
  %51 = load ptr, ptr %6, align 8
  %52 = load ptr, ptr %7, align 8
  %53 = load ptr, ptr %8, align 8
  %54 = load i32, ptr %11, align 4
  %55 = load i32, ptr %13, align 4
  %56 = call zeroext i16 @elem_tlv(ptr noundef %51, ptr noundef %52, ptr noundef %53, i8 noundef zeroext 40, i32 noundef 5, i32 noundef 43, i32 noundef %54, i32 noundef %55, ptr noundef null)
  %57 = zext i16 %56 to i32
  store i32 %57, ptr %12, align 4
  %58 = icmp ugt i32 %57, 0
  br i1 %58, label %59, label %66

59:                                               ; preds = %50
  %60 = load i32, ptr %12, align 4
  %61 = load i32, ptr %11, align 4
  %62 = add i32 %61, %60
  store i32 %62, ptr %11, align 4
  %63 = load i32, ptr %12, align 4
  %64 = load i32, ptr %13, align 4
  %65 = sub i32 %64, %63
  store i32 %65, ptr %13, align 4
  br label %66

66:                                               ; preds = %59, %50
  %67 = load i32, ptr %13, align 4
  %68 = icmp sle i32 %67, 0
  br i1 %68, label %69, label %70

69:                                               ; preds = %66
  store i32 1, ptr %14, align 4
  br label %142

70:                                               ; preds = %66
  %71 = load ptr, ptr %6, align 8
  %72 = load ptr, ptr %7, align 8
  %73 = load ptr, ptr %8, align 8
  %74 = load i32, ptr %11, align 4
  %75 = load i32, ptr %13, align 4
  %76 = call zeroext i16 @elem_tlv(ptr noundef %71, ptr noundef %72, ptr noundef %73, i8 noundef zeroext 39, i32 noundef 5, i32 noundef 45, i32 noundef %74, i32 noundef %75, ptr noundef null)
  %77 = zext i16 %76 to i32
  store i32 %77, ptr %12, align 4
  %78 = icmp ugt i32 %77, 0
  br i1 %78, label %79, label %86

79:                                               ; preds = %70
  %80 = load i32, ptr %12, align 4
  %81 = load i32, ptr %11, align 4
  %82 = add i32 %81, %80
  store i32 %82, ptr %11, align 4
  %83 = load i32, ptr %12, align 4
  %84 = load i32, ptr %13, align 4
  %85 = sub i32 %84, %83
  store i32 %85, ptr %13, align 4
  br label %86

86:                                               ; preds = %79, %70
  %87 = load i32, ptr %13, align 4
  %88 = icmp sle i32 %87, 0
  br i1 %88, label %89, label %90

89:                                               ; preds = %86
  store i32 1, ptr %14, align 4
  br label %142

90:                                               ; preds = %86
  %91 = load ptr, ptr %6, align 8
  %92 = load ptr, ptr %7, align 8
  %93 = load ptr, ptr %8, align 8
  %94 = load i32, ptr %11, align 4
  %95 = load i32, ptr %13, align 4
  %96 = call zeroext i16 @elem_tlv(ptr noundef %91, ptr noundef %92, ptr noundef %93, i8 noundef zeroext 51, i32 noundef 5, i32 noundef 66, i32 noundef %94, i32 noundef %95, ptr noundef null)
  %97 = zext i16 %96 to i32
  store i32 %97, ptr %12, align 4
  %98 = icmp ugt i32 %97, 0
  br i1 %98, label %99, label %106

99:                                               ; preds = %90
  %100 = load i32, ptr %12, align 4
  %101 = load i32, ptr %11, align 4
  %102 = add i32 %101, %100
  store i32 %102, ptr %11, align 4
  %103 = load i32, ptr %12, align 4
  %104 = load i32, ptr %13, align 4
  %105 = sub i32 %104, %103
  store i32 %105, ptr %13, align 4
  br label %106

106:                                              ; preds = %99, %90
  %107 = load i32, ptr %13, align 4
  %108 = icmp sle i32 %107, 0
  br i1 %108, label %109, label %110

109:                                              ; preds = %106
  store i32 1, ptr %14, align 4
  br label %142

110:                                              ; preds = %106
  %111 = load ptr, ptr %6, align 8
  %112 = load ptr, ptr %7, align 8
  %113 = load ptr, ptr %8, align 8
  %114 = load i32, ptr %11, align 4
  %115 = load i32, ptr %13, align 4
  %116 = call zeroext i16 @elem_tlv_e(ptr noundef %111, ptr noundef %112, ptr noundef %113, i8 noundef zeroext 123, i32 noundef 5, i32 noundef 46, i32 noundef %114, i32 noundef %115, ptr noundef null)
  %117 = zext i16 %116 to i32
  store i32 %117, ptr %12, align 4
  %118 = icmp ugt i32 %117, 0
  br i1 %118, label %119, label %126

119:                                              ; preds = %110
  %120 = load i32, ptr %12, align 4
  %121 = load i32, ptr %11, align 4
  %122 = add i32 %121, %120
  store i32 %122, ptr %11, align 4
  %123 = load i32, ptr %12, align 4
  %124 = load i32, ptr %13, align 4
  %125 = sub i32 %124, %123
  store i32 %125, ptr %13, align 4
  br label %126

126:                                              ; preds = %119, %110
  %127 = load i32, ptr %13, align 4
  %128 = icmp ugt i32 %127, 0
  br i1 %128, label %129, label %141

129:                                              ; preds = %126
  %130 = load ptr, ptr %7, align 8
  %131 = load ptr, ptr %8, align 8
  %132 = load ptr, ptr %6, align 8
  %133 = load i32, ptr %11, align 4
  %134 = load i32, ptr %13, align 4
  %135 = sub i32 %134, 0
  %136 = call ptr @proto_tree_add_expert(ptr noundef %130, ptr noundef %131, ptr noundef @ei_gsm_a_gm_extraneous_data, ptr noundef %132, i32 noundef %133, i32 noundef %135)
  %137 = load i32, ptr %13, align 4
  %138 = sub i32 %137, 0
  %139 = load i32, ptr %11, align 4
  %140 = add i32 %139, %138
  store i32 %140, ptr %11, align 4
  br label %141

141:                                              ; preds = %129, %126
  store i32 0, ptr %14, align 4
  br label %142

142:                                              ; preds = %141, %109, %89, %69, %49
  call void @llvm.lifetime.end.p0(i64 4, ptr %13) #6
  call void @llvm.lifetime.end.p0(i64 4, ptr %12) #6
  call void @llvm.lifetime.end.p0(i64 4, ptr %11) #6
  %143 = load i32, ptr %14, align 4
  switch i32 %143, label %145 [
    i32 0, label %144
    i32 1, label %144
  ]

144:                                              ; preds = %142, %142
  ret void

145:                                              ; preds = %142
  unreachable
}