; Function Attrs: null_pointer_is_valid sspstrong uwtable
define internal void @dtap_sm_req_pdp_act(ptr noundef %0, ptr noundef %1, ptr noundef initializes((348, 352), (384, 388)) %2, i32 noundef %3, i32 noundef %4) #1 {
  %6 = getelementptr inbounds nuw i8, ptr %2, i64 348
  store i32 -1, ptr %6, align 4
  %7 = getelementptr inbounds nuw i8, ptr %2, i64 384
  store i32 1, ptr %7, align 8
  %8 = icmp sgt i32 %4, 0
  br i1 %8, label %9, label %15

9:                                                ; preds = %5
  %10 = tail call zeroext i16 @elem_lv(ptr noundef %0, ptr noundef %1, ptr noundef %2, i32 noundef 5, i32 noundef 47, i32 noundef %3, i32 noundef %4, ptr noundef nonnull @.str.1137)
  %.not = icmp eq i16 %10, 0
  br i1 %.not, label %15, label %11

11:                                               ; preds = %9
  %12 = zext i16 %10 to i32
  %13 = add i32 %3, %12
  %14 = sub nsw i32 %4, %12
  br label %18

15:                                               ; preds = %9, %5
  %16 = tail call ptr @get_gsm_a_msg_string(i32 noundef 5, i32 noundef 47)
  %17 = tail call ptr (ptr, ptr, ptr, ptr, i32, i32, ptr, ...) @proto_tree_add_expert_format(ptr noundef %1, ptr noundef %2, ptr noundef nonnull @ei_gsm_a_gm_missing_mandatory_element, ptr noundef %0, i32 noundef %3, i32 noundef 0, ptr noundef nonnull @.str.1095, ptr noundef %16, ptr noundef nonnull @.str.1137)
  br label %18

18:                                               ; preds = %15, %11
  %.065 = phi i32 [ %13, %11 ], [ %3, %15 ]
  %.0 = phi i32 [ %14, %11 ], [ %4, %15 ]
  %19 = icmp slt i32 %.0, 1
  br i1 %19, label %45, label %20

20:                                               ; preds = %18
  %21 = tail call zeroext i16 @elem_tlv(ptr noundef %0, ptr noundef %1, ptr noundef %2, i8 noundef zeroext 40, i32 noundef 5, i32 noundef 43, i32 noundef %.065, i32 noundef %.0, ptr noundef null)
  %22 = zext i16 %21 to i32
  %23 = sub nsw i32 %.0, %22
  %24 = icmp slt i32 %23, 1
  br i1 %24, label %45, label %25

25:                                               ; preds = %20
  %26 = add i32 %.065, %22
  %27 = tail call zeroext i16 @elem_tlv(ptr noundef %0, ptr noundef %1, ptr noundef %2, i8 noundef zeroext 39, i32 noundef 5, i32 noundef 45, i32 noundef %26, i32 noundef %23, ptr noundef null)
  %28 = zext i16 %27 to i32
  %29 = sub nsw i32 %23, %28
  %30 = icmp slt i32 %29, 1
  br i1 %30, label %45, label %31

31:                                               ; preds = %25
  %32 = add i32 %26, %28
  %33 = tail call zeroext i16 @elem_tlv(ptr noundef %0, ptr noundef %1, ptr noundef %2, i8 noundef zeroext 51, i32 noundef 5, i32 noundef 66, i32 noundef %32, i32 noundef %29, ptr noundef null)
  %34 = zext i16 %33 to i32
  %35 = sub nsw i32 %29, %34
  %36 = icmp slt i32 %35, 1
  br i1 %36, label %45, label %37

37:                                               ; preds = %31
  %38 = add i32 %32, %34
  %39 = tail call zeroext i16 @elem_tlv_e(ptr noundef %0, ptr noundef %1, ptr noundef %2, i8 noundef zeroext 123, i32 noundef 5, i32 noundef 46, i32 noundef %38, i32 noundef %35, ptr noundef null)
  %40 = zext i16 %39 to i32
  %.not80 = icmp eq i32 %35, %40
  br i1 %.not80, label %45, label %41

41:                                               ; preds = %37
  %42 = sub nsw i32 %35, %40
  %43 = add i32 %38, %40
  %44 = tail call ptr @proto_tree_add_expert(ptr noundef %1, ptr noundef %2, ptr noundef nonnull @ei_gsm_a_gm_extraneous_data, ptr noundef %0, i32 noundef %43, i32 noundef %42)
  br label %45

45:                                               ; preds = %37, %41, %31, %25, %20, %18
  ret void
}